; Function Attrs: mustprogress nounwind uwtable
define hidden void @_ZNK5clang6driver10toolchains15HIPAMDToolChain22addClangWarningOptionsERN4llvm11SmallVectorIPKcLj16EEE(ptr noundef nonnull align 8 dereferenceable(4544) %0, ptr noundef nonnull align 8 dereferenceable(144) %1) unnamed_addr #0 align 2 {
  tail call void @_ZNK5clang6driver10toolchains15AMDGPUToolChain22addClangWarningOptionsERN4llvm11SmallVectorIPKcLj16EEE(ptr noundef nonnull align 8 dereferenceable(4536) %0, ptr noundef nonnull align 8 dereferenceable(144) %1) #12
  %3 = getelementptr inbounds nuw i8, ptr %0, i64 4536
  %4 = load ptr, ptr %3, align 8
  %5 = load ptr, ptr %4, align 8
  %6 = getelementptr inbounds i8, ptr %5, i64 568
  %7 = load ptr, ptr %6, align 8
  tail call void %7(ptr noundef nonnull align 8 dereferenceable(2168) %4, ptr noundef nonnull align 8 dereferenceable(144) %1) #12
  ret void
}